target datalayout = "e-m:e-p270:32:32-p271:32:32-p272:64:64-i64:64-i128:128-f80:128-n8:16:32:64-S128"
target triple = "x86_64-pc-linux-gnu"

%struct.psa_key_slot_t = type { %struct.psa_key_attributes_s, i32, i8, %union.anon, %struct.key_data }
%struct.psa_key_attributes_s = type { i16, i16, i32, %struct.psa_key_policy_s, i32 }
%struct.psa_key_policy_s = type { i32, i32, i32 }
%union.anon = type { %struct.anon.0 }
%struct.anon.0 = type { i64 }
%struct.key_data = type { ptr, i64 }

; Function Attrs: nounwind uwtable
define hidden i32 @psa_remove_key_data_from_memory(ptr noundef %0) #0 {
  %2 = alloca ptr, align 8
  store ptr %0, ptr %2, align 8, !tbaa !21
  %3 = load ptr, ptr %2, align 8, !tbaa !21
  %4 = getelementptr inbounds nuw %struct.psa_key_slot_t, ptr %3, i32 0, i32 4
  %5 = getelementptr inbounds nuw %struct.key_data, ptr %4, i32 0, i32 0
  %6 = load ptr, ptr %5, align 8, !tbaa !22
  %7 = icmp ne ptr %6, null
  br i1 %7, label %8, label %17

8:                                                ; preds = %1
  %9 = load ptr, ptr %2, align 8, !tbaa !21
  %10 = getelementptr inbounds nuw %struct.psa_key_slot_t, ptr %9, i32 0, i32 4
  %11 = getelementptr inbounds nuw %struct.key_data, ptr %10, i32 0, i32 0
  %12 = load ptr, ptr %11, align 8, !tbaa !22
  %13 = load ptr, ptr %2, align 8, !tbaa !21
  %14 = getelementptr inbounds nuw %struct.psa_key_slot_t, ptr %13, i32 0, i32 4
  %15 = getelementptr inbounds nuw %struct.key_data, ptr %14, i32 0, i32 1
  %16 = load i64, ptr %15, align 8, !tbaa !28
  call void @mbedtls_zeroize_and_free(ptr noundef %12, i64 noundef %16)
  br label %17

17:                                               ; preds = %8, %1
  %18 = load ptr, ptr %2, align 8, !tbaa !21
  %19 = getelementptr inbounds nuw %struct.psa_key_slot_t, ptr %18, i32 0, i32 4
  %20 = getelementptr inbounds nuw %struct.key_data, ptr %19, i32 0, i32 0
  store ptr null, ptr %20, align 8, !tbaa !22
  %21 = load ptr, ptr %2, align 8, !tbaa !21
  %22 = getelementptr inbounds nuw %struct.psa_key_slot_t, ptr %21, i32 0, i32 4
  %23 = getelementptr inbounds nuw %struct.key_data, ptr %22, i32 0, i32 1
  store i64 0, ptr %23, align 8, !tbaa !28
  ret i32 0
}